(lp0
(S'cppflags'
p1
ccopy_reg
_reconstructor
p2
(cino.utils
SpaceList
p3
c__builtin__
list
p4
(lp5
S'-mmcu=atmega328p'
p6
aS'-DF_CPU=16000000L'
p7
aS'-DARDUINO=105'
p8
aS'-I/usr/share/arduino/hardware/arduino/cores/arduino'
p9
aS'-ffunction-sections'
p10
aS'-fdata-sections'
p11
aS'-g'
p12
aS'-Os'
p13
aS'-w'
p14
aS'-I/usr/share/arduino/hardware/arduino/variants/standard'
p15
aS'-I/usr/share/arduino/libraries/AESLibrary'
p16
aS'-I/usr/share/arduino/hardware/arduino/cores/arduino'
p17
aS'-I/usr/share/arduino/hardware/arduino/cores/arduino/avr-libc'
p18
atp19
Rp20
tp21
a(S'arduino_variants_dir'
p22
S'/usr/share/arduino/hardware/arduino/variants'
p23
tp24
a(S'version.txt'
p25
S'/usr/share/arduino/lib/version.txt'
p26
tp27
a(S'used_libs'
p28
(lp29
S'/usr/share/arduino/libraries/AESLibrary'
p30
aS'/usr/share/arduino/hardware/arduino/cores/arduino'
p31
atp32
a(S'cc'
p33
S'/usr/share/arduino/hardware/tools/avr/bin/avr-gcc'
p34
tp35
a(S'make'
p36
S'/usr/share/arduino/hardware/tools/avr/bin/make'
p37
tp38
a(S'cflags'
p39
g2
(g3
g4
(lp40
tp41
Rp42
tp43
a(S'build_dir'
p44
S'.build/uno'
p45
tp46
a(S'arduino_core_dir'
p47
g31
tp48
a(S'boards.txt'
p49
S'/usr/share/arduino/hardware/arduino/boards.txt'
p50
tp51
a(S'cxxflags'
p52
g2
(g3
g4
(lp53
S'-fno-exceptions'
p54
atp55
Rp56
tp57
a(S'cxx'
p58
S'/usr/share/arduino/hardware/tools/avr/bin/avr-g++'
p59
tp60
a(S'ar'
p61
S'/usr/share/arduino/hardware/tools/avr/bin/avr-ar'
p62
tp63
a(S'names'
p64
(dp65
S'cpp'
p66
S'%s.cpp'
p67
sS'obj'
p68
S'%s.o'
p69
sS'deps'
p70
S'%s.d'
p71
sS'lib'
p72
S'lib%s.a'
p73
stp74
a(S'deps'
p75
g2
(g3
g4
(lp76
S'.build/uno/src/dependencies.d'
p77
aS'.build/uno/AESLibrary/dependencies.d'
p78
aS'.build/uno/arduino/dependencies.d'
p79
atp80
Rp81
tp82
a(S'arduino_libraries_dir'
p83
S'/usr/share/arduino/libraries'
p84
tp85
a(S'arduino_lib_version'
p86
g2
(cino.environment
Version
p87
c__builtin__
tuple
p88
(I1
I0
I5
tp89
tp90
Rp91
tp92
a(S'objcopy'
p93
S'/usr/share/arduino/hardware/tools/avr/bin/avr-objcopy'
p94
tp95
a(S'board_models'
p96
cino.environment
BoardModels
p97
((lp98
(lp99
S'uno'
p100
a(dp101
S'bootloader'
p102
(dp103
S'extended_fuses'
p104
S'0x05'
p105
sS'high_fuses'
p106
S'0xde'
p107
sS'low_fuses'
p108
S'0xff'
p109
sS'lock_bits'
p110
S'0x0F'
p111
sS'file'
p112
S'optiboot_atmega328.hex'
p113
sS'path'
p114
S'optiboot'
p115
sS'unlock_bits'
p116
S'0x3F'
p117
ssS'upload'
p118
(dp119
S'protocol'
p120
S'arduino'
p121
sS'maximum_size'
p122
S'32256'
p123
sS'speed'
p124
S'115200'
p125
ssS'build'
p126
(dp127
S'core'
p128
S'arduino'
p129
sS'mcu'
p130
S'atmega328p'
p131
sS'f_cpu'
p132
S'16000000L'
p133
sS'variant'
p134
S'standard'
p135
ssS'name'
p136
S'Arduino Uno'
p137
saa(lp138
S'atmega328'
p139
a(dp140
S'bootloader'
p141
(dp142
S'extended_fuses'
p143
S'0x05'
p144
sS'high_fuses'
p145
S'0xDA'
p146
sS'low_fuses'
p147
S'0xFF'
p148
sS'lock_bits'
p149
S'0x0F'
p150
sS'file'
p151
S'ATmegaBOOT_168_atmega328.hex'
p152
sS'path'
p153
S'atmega'
p154
sS'unlock_bits'
p155
S'0x3F'
p156
ssS'upload'
p157
(dp158
S'protocol'
p159
S'arduino'
p160
sS'maximum_size'
p161
S'30720'
p162
sS'speed'
p163
S'57600'
p164
ssS'build'
p165
(dp166
S'core'
p167
S'arduino'
p168
sS'mcu'
p169
S'atmega328p'
p170
sS'f_cpu'
p171
S'16000000L'
p172
sS'variant'
p173
S'standard'
p174
ssS'name'
p175
S'Arduino Duemilanove w/ ATmega328'
p176
saa(lp177
S'diecimila'
p178
a(dp179
S'bootloader'
p180
(dp181
S'extended_fuses'
p182
S'0x00'
p183
sS'high_fuses'
p184
S'0xdd'
p185
sS'low_fuses'
p186
S'0xff'
p187
sS'lock_bits'
p188
S'0x0F'
p189
sS'file'
p190
S'ATmegaBOOT_168_diecimila.hex'
p191
sS'path'
p192
S'atmega'
p193
sS'unlock_bits'
p194
S'0x3F'
p195
ssS'upload'
p196
(dp197
S'protocol'
p198
S'arduino'
p199
sS'maximum_size'
p200
S'14336'
p201
sS'speed'
p202
S'19200'
p203
ssS'build'
p204
(dp205
S'core'
p206
S'arduino'
p207
sS'mcu'
p208
S'atmega168'
p209
sS'f_cpu'
p210
S'16000000L'
p211
sS'variant'
p212
S'standard'
p213
ssS'name'
p214
S'Arduino Diecimila or Duemilanove w/ ATmega168'
p215
saa(lp216
S'nano328'
p217
a(dp218
S'bootloader'
p219
(dp220
S'extended_fuses'
p221
S'0x05'
p222
sS'high_fuses'
p223
S'0xDA'
p224
sS'low_fuses'
p225
S'0xFF'
p226
sS'lock_bits'
p227
S'0x0F'
p228
sS'file'
p229
S'ATmegaBOOT_168_atmega328.hex'
p230
sS'path'
p231
S'atmega'
p232
sS'unlock_bits'
p233
S'0x3F'
p234
ssS'upload'
p235
(dp236
S'protocol'
p237
S'arduino'
p238
sS'maximum_size'
p239
S'30720'
p240
sS'speed'
p241
S'57600'
p242
ssS'build'
p243
(dp244
S'core'
p245
S'arduino'
p246
sS'mcu'
p247
S'atmega328p'
p248
sS'f_cpu'
p249
S'16000000L'
p250
sS'variant'
p251
S'eightanaloginputs'
p252
ssS'name'
p253
S'Arduino Nano w/ ATmega328'
p254
saa(lp255
S'nano'
p256
a(dp257
S'bootloader'
p258
(dp259
S'extended_fuses'
p260
S'0x00'
p261
sS'high_fuses'
p262
S'0xdd'
p263
sS'low_fuses'
p264
S'0xff'
p265
sS'lock_bits'
p266
S'0x0F'
p267
sS'file'
p268
S'ATmegaBOOT_168_diecimila.hex'
p269
sS'path'
p270
S'atmega'
p271
sS'unlock_bits'
p272
S'0x3F'
p273
ssS'upload'
p274
(dp275
S'protocol'
p276
S'arduino'
p277
sS'maximum_size'
p278
S'14336'
p279
sS'speed'
p280
S'19200'
p281
ssS'build'
p282
(dp283
S'core'
p284
S'arduino'
p285
sS'mcu'
p286
S'atmega168'
p287
sS'f_cpu'
p288
S'16000000L'
p289
sS'variant'
p290
S'eightanaloginputs'
p291
ssS'name'
p292
S'Arduino Nano w/ ATmega168'
p293
saa(lp294
S'mega2560'
p295
a(dp296
S'bootloader'
p297
(dp298
S'extended_fuses'
p299
S'0xFD'
p300
sS'high_fuses'
p301
S'0xD8'
p302
sS'low_fuses'
p303
S'0xFF'
p304
sS'lock_bits'
p305
S'0x0F'
p306
sS'file'
p307
S'stk500boot_v2_mega2560.hex'
p308
sS'path'
p309
S'stk500v2'
p310
sS'unlock_bits'
p311
S'0x3F'
p312
ssS'upload'
p313
(dp314
S'protocol'
p315
S'wiring'
p316
sS'maximum_size'
p317
S'258048'
p318
sS'speed'
p319
S'115200'
p320
ssS'build'
p321
(dp322
S'core'
p323
S'arduino'
p324
sS'mcu'
p325
S'atmega2560'
p326
sS'f_cpu'
p327
S'16000000L'
p328
sS'variant'
p329
S'mega'
p330
ssS'name'
p331
S'Arduino Mega 2560 or Mega ADK'
p332
saa(lp333
S'mega'
p334
a(dp335
S'bootloader'
p336
(dp337
S'extended_fuses'
p338
S'0xF5'
p339
sS'high_fuses'
p340
S'0xDA'
p341
sS'low_fuses'
p342
S'0xFF'
p343
sS'lock_bits'
p344
S'0x0F'
p345
sS'file'
p346
S'ATmegaBOOT_168_atmega1280.hex'
p347
sS'path'
p348
S'atmega'
p349
sS'unlock_bits'
p350
S'0x3F'
p351
ssS'upload'
p352
(dp353
S'protocol'
p354
S'arduino'
p355
sS'maximum_size'
p356
S'126976'
p357
sS'speed'
p358
S'57600'
p359
ssS'build'
p360
(dp361
S'core'
p362
S'arduino'
p363
sS'mcu'
p364
S'atmega1280'
p365
sS'f_cpu'
p366
S'16000000L'
p367
sS'variant'
p368
S'mega'
p369
ssS'name'
p370
S'Arduino Mega (ATmega1280)'
p371
saa(lp372
S'leonardo'
p373
a(dp374
S'bootloader'
p375
(dp376
S'extended_fuses'
p377
S'0xcb'
p378
sS'high_fuses'
p379
S'0xd8'
p380
sS'low_fuses'
p381
S'0xff'
p382
sS'lock_bits'
p383
S'0x2F'
p384
sS'file'
p385
S'Caterina-Leonardo.hex'
p386
sS'path'
p387
S'caterina'
p388
sS'unlock_bits'
p389
S'0x3F'
p390
ssS'upload'
p391
(dp392
S'protocol'
p393
S'avr109'
p394
sS'maximum_size'
p395
S'28672'
p396
sS'speed'
p397
S'57600'
p398
sS'disable_flushing'
p399
S'true'
p400
ssS'build'
p401
(dp402
S'core'
p403
S'arduino'
p404
sS'f_cpu'
p405
S'16000000L'
p406
sS'vid'
p407
S'0x2341'
p408
sS'pid'
p409
S'0x8036'
p410
sS'variant'
p411
S'leonardo'
p412
sS'mcu'
p413
S'atmega32u4'
p414
ssS'name'
p415
S'Arduino Leonardo'
p416
saa(lp417
S'esplora'
p418
a(dp419
S'bootloader'
p420
(dp421
S'extended_fuses'
p422
S'0xcb'
p423
sS'high_fuses'
p424
S'0xd8'
p425
sS'low_fuses'
p426
S'0xff'
p427
sS'lock_bits'
p428
S'0x2F'
p429
sS'file'
p430
S'Caterina-Esplora.hex'
p431
sS'path'
p432
S'caterina'
p433
sS'unlock_bits'
p434
S'0x3F'
p435
ssS'upload'
p436
(dp437
S'protocol'
p438
S'avr109'
p439
sS'maximum_size'
p440
S'28672'
p441
sS'speed'
p442
S'57600'
p443
sS'disable_flushing'
p444
S'true'
p445
ssS'build'
p446
(dp447
S'core'
p448
S'arduino'
p449
sS'f_cpu'
p450
S'16000000L'
p451
sS'vid'
p452
S'0x2341'
p453
sS'pid'
p454
S'0x803C'
p455
sS'variant'
p456
S'leonardo'
p457
sS'mcu'
p458
S'atmega32u4'
p459
ssS'name'
p460
S'Arduino Esplora'
p461
saa(lp462
S'micro'
p463
a(dp464
S'bootloader'
p465
(dp466
S'extended_fuses'
p467
S'0xcb'
p468
sS'high_fuses'
p469
S'0xd8'
p470
sS'low_fuses'
p471
S'0xff'
p472
sS'lock_bits'
p473
S'0x2F'
p474
sS'file'
p475
S'Caterina-Micro.hex'
p476
sS'path'
p477
S'caterina'
p478
sS'unlock_bits'
p479
S'0x3F'
p480
ssS'upload'
p481
(dp482
S'protocol'
p483
S'avr109'
p484
sS'maximum_size'
p485
S'28672'
p486
sS'speed'
p487
S'57600'
p488
sS'disable_flushing'
p489
S'true'
p490
ssS'build'
p491
(dp492
S'core'
p493
S'arduino'
p494
sS'f_cpu'
p495
S'16000000L'
p496
sS'vid'
p497
S'0x2341'
p498
sS'pid'
p499
S'0x8037'
p500
sS'variant'
p501
S'micro'
p502
sS'mcu'
p503
S'atmega32u4'
p504
ssS'name'
p505
S'Arduino Micro'
p506
saa(lp507
S'mini328'
p508
a(dp509
S'bootloader'
p510
(dp511
S'extended_fuses'
p512
S'0x05'
p513
sS'high_fuses'
p514
S'0xd8'
p515
sS'low_fuses'
p516
S'0xff'
p517
sS'lock_bits'
p518
S'0x0F'
p519
sS'file'
p520
S'optiboot_atmega328-Mini.hex'
p521
sS'path'
p522
S'optiboot'
p523
sS'unlock_bits'
p524
S'0x3F'
p525
ssS'upload'
p526
(dp527
S'protocol'
p528
S'arduino'
p529
sS'maximum_size'
p530
S'28672'
p531
sS'speed'
p532
S'115200'
p533
ssS'build'
p534
(dp535
S'core'
p536
S'arduino'
p537
sS'mcu'
p538
S'atmega328p'
p539
sS'f_cpu'
p540
S'16000000L'
p541
sS'variant'
p542
S'eightanaloginputs'
p543
ssS'name'
p544
S'Arduino Mini w/ ATmega328'
p545
saa(lp546
S'mini'
p547
a(dp548
S'bootloader'
p549
(dp550
S'extended_fuses'
p551
S'0x00'
p552
sS'high_fuses'
p553
S'0xdd'
p554
sS'low_fuses'
p555
S'0xff'
p556
sS'lock_bits'
p557
S'0x0F'
p558
sS'file'
p559
S'ATmegaBOOT_168_ng.hex'
p560
sS'path'
p561
S'atmega'
p562
sS'unlock_bits'
p563
S'0x3F'
p564
ssS'upload'
p565
(dp566
S'protocol'
p567
S'arduino'
p568
sS'maximum_size'
p569
S'14336'
p570
sS'speed'
p571
S'19200'
p572
ssS'build'
p573
(dp574
S'core'
p575
S'arduino'
p576
sS'mcu'
p577
S'atmega168'
p578
sS'f_cpu'
p579
S'16000000L'
p580
sS'variant'
p581
S'eightanaloginputs'
p582
ssS'name'
p583
S'Arduino Mini w/ ATmega168'
p584
saa(lp585
S'ethernet'
p586
a(dp587
S'bootloader'
p588
(dp589
S'extended_fuses'
p590
S'0x05'
p591
sS'high_fuses'
p592
S'0xde'
p593
sS'low_fuses'
p594
S'0xff'
p595
sS'lock_bits'
p596
S'0x0F'
p597
sS'file'
p598
S'optiboot_atmega328.hex'
p599
sS'path'
p600
S'optiboot'
p601
sS'unlock_bits'
p602
S'0x3F'
p603
ssS'upload'
p604
(dp605
S'protocol'
p606
S'arduino'
p607
sS'maximum_size'
p608
S'32256'
p609
sS'speed'
p610
S'115200'
p611
ssS'build'
p612
(dp613
S'variant'
p614
S'standard'
p615
sS'mcu'
p616
S'atmega328p'
p617
sS'f_cpu'
p618
S'16000000L'
p619
sS'core'
p620
S'arduino'
p621
ssS'name'
p622
S'Arduino Ethernet'
p623
saa(lp624
S'fio'
p625
a(dp626
S'bootloader'
p627
(dp628
S'extended_fuses'
p629
S'0x05'
p630
sS'high_fuses'
p631
S'0xDA'
p632
sS'low_fuses'
p633
S'0xFF'
p634
sS'lock_bits'
p635
S'0x0F'
p636
sS'file'
p637
S'ATmegaBOOT_168_atmega328_pro_8MHz.hex'
p638
sS'path'
p639
S'arduino:atmega'
p640
sS'unlock_bits'
p641
S'0x3F'
p642
ssS'upload'
p643
(dp644
S'protocol'
p645
S'arduino'
p646
sS'maximum_size'
p647
S'30720'
p648
sS'speed'
p649
S'57600'
p650
ssS'build'
p651
(dp652
S'core'
p653
S'arduino'
p654
sS'mcu'
p655
S'atmega328p'
p656
sS'f_cpu'
p657
S'8000000L'
p658
sS'variant'
p659
S'eightanaloginputs'
p660
ssS'name'
p661
S'Arduino Fio'
p662
saa(lp663
S'bt328'
p664
a(dp665
S'bootloader'
p666
(dp667
S'extended_fuses'
p668
S'0x05'
p669
sS'high_fuses'
p670
S'0xd8'
p671
sS'low_fuses'
p672
S'0xff'
p673
sS'lock_bits'
p674
S'0x0F'
p675
sS'file'
p676
S'ATmegaBOOT_168_atmega328_bt.hex'
p677
sS'path'
p678
S'bt'
p679
sS'unlock_bits'
p680
S'0x3F'
p681
ssS'upload'
p682
(dp683
S'protocol'
p684
S'arduino'
p685
sS'maximum_size'
p686
S'28672'
p687
sS'speed'
p688
S'19200'
p689
sS'disable_flushing'
p690
S'true'
p691
ssS'build'
p692
(dp693
S'core'
p694
S'arduino'
p695
sS'mcu'
p696
S'atmega328p'
p697
sS'f_cpu'
p698
S'16000000L'
p699
sS'variant'
p700
S'eightanaloginputs'
p701
ssS'name'
p702
S'Arduino BT w/ ATmega328'
p703
saa(lp704
S'bt'
p705
a(dp706
S'bootloader'
p707
(dp708
S'extended_fuses'
p709
S'0x00'
p710
sS'high_fuses'
p711
S'0xdd'
p712
sS'low_fuses'
p713
S'0xff'
p714
sS'lock_bits'
p715
S'0x0F'
p716
sS'file'
p717
S'ATmegaBOOT_168.hex'
p718
sS'path'
p719
S'bt'
p720
sS'unlock_bits'
p721
S'0x3F'
p722
ssS'upload'
p723
(dp724
S'protocol'
p725
S'arduino'
p726
sS'maximum_size'
p727
S'14336'
p728
sS'speed'
p729
S'19200'
p730
sS'disable_flushing'
p731
S'true'
p732
ssS'build'
p733
(dp734
S'core'
p735
S'arduino'
p736
sS'mcu'
p737
S'atmega168'
p738
sS'f_cpu'
p739
S'16000000L'
p740
sS'variant'
p741
S'eightanaloginputs'
p742
ssS'name'
p743
S'Arduino BT w/ ATmega168'
p744
saa(lp745
S'LilyPadUSB'
p746
a(dp747
S'bootloader'
p748
(dp749
S'extended_fuses'
p750
S'0xce'
p751
sS'high_fuses'
p752
S'0xd8'
p753
sS'low_fuses'
p754
S'0xff'
p755
sS'lock_bits'
p756
S'0x2F'
p757
sS'file'
p758
S'Caterina-LilyPadUSB.hex'
p759
sS'path'
p760
S'caterina-LilyPadUSB'
p761
sS'unlock_bits'
p762
S'0x3F'
p763
ssS'upload'
p764
(dp765
S'protocol'
p766
S'avr109'
p767
sS'maximum_size'
p768
S'28672'
p769
sS'speed'
p770
S'57600'
p771
sS'disable_flushing'
p772
S'true'
p773
ssS'build'
p774
(dp775
S'core'
p776
S'arduino'
p777
sS'f_cpu'
p778
S'8000000L'
p779
sS'vid'
p780
S'0x1B4F'
p781
sS'pid'
p782
S'0x9208'
p783
sS'variant'
p784
S'leonardo'
p785
sS'mcu'
p786
S'atmega32u4'
p787
ssS'name'
p788
S'LilyPad Arduino USB'
p789
saa(lp790
S'lilypad328'
p791
a(dp792
S'bootloader'
p793
(dp794
S'extended_fuses'
p795
S'0x05'
p796
sS'high_fuses'
p797
S'0xDA'
p798
sS'low_fuses'
p799
S'0xFF'
p800
sS'lock_bits'
p801
S'0x0F'
p802
sS'file'
p803
S'ATmegaBOOT_168_atmega328_pro_8MHz.hex'
p804
sS'path'
p805
S'atmega'
p806
sS'unlock_bits'
p807
S'0x3F'
p808
ssS'upload'
p809
(dp810
S'protocol'
p811
S'arduino'
p812
sS'maximum_size'
p813
S'30720'
p814
sS'speed'
p815
S'57600'
p816
ssS'build'
p817
(dp818
S'core'
p819
S'arduino'
p820
sS'mcu'
p821
S'atmega328p'
p822
sS'f_cpu'
p823
S'8000000L'
p824
sS'variant'
p825
S'standard'
p826
ssS'name'
p827
S'LilyPad Arduino w/ ATmega328'
p828
saa(lp829
S'lilypad'
p830
a(dp831
S'bootloader'
p832
(dp833
S'extended_fuses'
p834
S'0x00'
p835
sS'high_fuses'
p836
S'0xdd'
p837
sS'low_fuses'
p838
S'0xe2'
p839
sS'lock_bits'
p840
S'0x0F'
p841
sS'file'
p842
S'LilyPadBOOT_168.hex'
p843
sS'path'
p844
S'lilypad'
p845
sS'unlock_bits'
p846
S'0x3F'
p847
ssS'upload'
p848
(dp849
S'protocol'
p850
S'arduino'
p851
sS'maximum_size'
p852
S'14336'
p853
sS'speed'
p854
S'19200'
p855
ssS'build'
p856
(dp857
S'core'
p858
S'arduino'
p859
sS'mcu'
p860
S'atmega168'
p861
sS'f_cpu'
p862
S'8000000L'
p863
sS'variant'
p864
S'standard'
p865
ssS'name'
p866
S'LilyPad Arduino w/ ATmega168'
p867
saa(lp868
S'pro5v328'
p869
a(dp870
S'bootloader'
p871
(dp872
S'extended_fuses'
p873
S'0x05'
p874
sS'high_fuses'
p875
S'0xDA'
p876
sS'low_fuses'
p877
S'0xFF'
p878
sS'lock_bits'
p879
S'0x0F'
p880
sS'file'
p881
S'ATmegaBOOT_168_atmega328.hex'
p882
sS'path'
p883
S'atmega'
p884
sS'unlock_bits'
p885
S'0x3F'
p886
ssS'upload'
p887
(dp888
S'protocol'
p889
S'arduino'
p890
sS'maximum_size'
p891
S'30720'
p892
sS'speed'
p893
S'57600'
p894
ssS'build'
p895
(dp896
S'core'
p897
S'arduino'
p898
sS'mcu'
p899
S'atmega328p'
p900
sS'f_cpu'
p901
S'16000000L'
p902
sS'variant'
p903
S'standard'
p904
ssS'name'
p905
S'Arduino Pro or Pro Mini (5V, 16 MHz) w/ ATmega328'
p906
saa(lp907
S'pro5v'
p908
a(dp909
S'bootloader'
p910
(dp911
S'extended_fuses'
p912
S'0x00'
p913
sS'high_fuses'
p914
S'0xdd'
p915
sS'low_fuses'
p916
S'0xff'
p917
sS'lock_bits'
p918
S'0x0F'
p919
sS'file'
p920
S'ATmegaBOOT_168_diecimila.hex'
p921
sS'path'
p922
S'atmega'
p923
sS'unlock_bits'
p924
S'0x3F'
p925
ssS'upload'
p926
(dp927
S'protocol'
p928
S'arduino'
p929
sS'maximum_size'
p930
S'14336'
p931
sS'speed'
p932
S'19200'
p933
ssS'build'
p934
(dp935
S'core'
p936
S'arduino'
p937
sS'mcu'
p938
S'atmega168'
p939
sS'f_cpu'
p940
S'16000000L'
p941
sS'variant'
p942
S'standard'
p943
ssS'name'
p944
S'Arduino Pro or Pro Mini (5V, 16 MHz) w/ ATmega168'
p945
saa(lp946
S'pro328'
p947
a(dp948
S'bootloader'
p949
(dp950
S'extended_fuses'
p951
S'0x05'
p952
sS'high_fuses'
p953
S'0xDA'
p954
sS'low_fuses'
p955
S'0xFF'
p956
sS'lock_bits'
p957
S'0x0F'
p958
sS'file'
p959
S'ATmegaBOOT_168_atmega328_pro_8MHz.hex'
p960
sS'path'
p961
S'atmega'
p962
sS'unlock_bits'
p963
S'0x3F'
p964
ssS'upload'
p965
(dp966
S'protocol'
p967
S'arduino'
p968
sS'maximum_size'
p969
S'30720'
p970
sS'speed'
p971
S'57600'
p972
ssS'build'
p973
(dp974
S'core'
p975
S'arduino'
p976
sS'mcu'
p977
S'atmega328p'
p978
sS'f_cpu'
p979
S'8000000L'
p980
sS'variant'
p981
S'standard'
p982
ssS'name'
p983
S'Arduino Pro or Pro Mini (3.3V, 8 MHz) w/ ATmega328'
p984
saa(lp985
S'pro'
p986
a(dp987
S'bootloader'
p988
(dp989
S'extended_fuses'
p990
S'0x00'
p991
sS'high_fuses'
p992
S'0xdd'
p993
sS'low_fuses'
p994
S'0xc6'
p995
sS'lock_bits'
p996
S'0x0F'
p997
sS'file'
p998
S'ATmegaBOOT_168_pro_8MHz.hex'
p999
sS'path'
p1000
S'atmega'
p1001
sS'unlock_bits'
p1002
S'0x3F'
p1003
ssS'upload'
p1004
(dp1005
S'protocol'
p1006
S'arduino'
p1007
sS'maximum_size'
p1008
S'14336'
p1009
sS'speed'
p1010
S'19200'
p1011
ssS'build'
p1012
(dp1013
S'core'
p1014
S'arduino'
p1015
sS'mcu'
p1016
S'atmega168'
p1017
sS'f_cpu'
p1018
S'8000000L'
p1019
sS'variant'
p1020
S'standard'
p1021
ssS'name'
p1022
S'Arduino Pro or Pro Mini (3.3V, 8 MHz) w/ ATmega168'
p1023
saa(lp1024
S'atmega168'
p1025
a(dp1026
S'bootloader'
p1027
(dp1028
S'extended_fuses'
p1029
S'0x00'
p1030
sS'high_fuses'
p1031
S'0xdd'
p1032
sS'low_fuses'
p1033
S'0xff'
p1034
sS'lock_bits'
p1035
S'0x0F'
p1036
sS'file'
p1037
S'ATmegaBOOT_168_ng.hex'
p1038
sS'path'
p1039
S'atmega'
p1040
sS'unlock_bits'
p1041
S'0x3F'
p1042
ssS'upload'
p1043
(dp1044
S'protocol'
p1045
S'arduino'
p1046
sS'maximum_size'
p1047
S'14336'
p1048
sS'speed'
p1049
S'19200'
p1050
ssS'build'
p1051
(dp1052
S'core'
p1053
S'arduino'
p1054
sS'mcu'
p1055
S'atmega168'
p1056
sS'f_cpu'
p1057
S'16000000L'
p1058
sS'variant'
p1059
S'standard'
p1060
ssS'name'
p1061
S'Arduino NG or older w/ ATmega168'
p1062
saa(lp1063
S'atmega8'
p1064
a(dp1065
S'bootloader'
p1066
(dp1067
S'high_fuses'
p1068
S'0xca'
p1069
sS'low_fuses'
p1070
S'0xdf'
p1071
sS'lock_bits'
p1072
S'0x0F'
p1073
sS'file'
p1074
S'ATmegaBOOT-prod-firmware-2009-11-07.hex'
p1075
sS'path'
p1076
S'atmega8'
p1077
sS'unlock_bits'
p1078
S'0x3F'
p1079
ssS'upload'
p1080
(dp1081
S'protocol'
p1082
S'arduino'
p1083
sS'maximum_size'
p1084
S'7168'
p1085
sS'speed'
p1086
S'19200'
p1087
ssS'build'
p1088
(dp1089
S'core'
p1090
S'arduino'
p1091
sS'mcu'
p1092
S'atmega8'
p1093
sS'f_cpu'
p1094
S'16000000L'
p1095
sS'variant'
p1096
S'standard'
p1097
ssS'name'
p1098
S'Arduino NG or older w/ ATmega8'
p1099
saa(lp1100
S'robotControl'
p1101
a(dp1102
S'bootloader'
p1103
(dp1104
S'extended_fuses'
p1105
S'0xcb'
p1106
sS'high_fuses'
p1107
S'0xd8'
p1108
sS'low_fuses'
p1109
S'0xff'
p1110
sS'lock_bits'
p1111
S'0x2F'
p1112
sS'file'
p1113
S'Caterina-Robot-Control.hex'
p1114
sS'path'
p1115
S'caterina-Arduino_Robot'
p1116
sS'unlock_bits'
p1117
S'0x3F'
p1118
ssS'upload'
p1119
(dp1120
S'protocol'
p1121
S'avr109'
p1122
sS'maximum_size'
p1123
S'28672'
p1124
sS'speed'
p1125
S'57600'
p1126
sS'disable_flushing'
p1127
S'true'
p1128
ssS'build'
p1129
(dp1130
S'core'
p1131
S'robot'
p1132
sS'f_cpu'
p1133
S'16000000L'
p1134
sS'vid'
p1135
S'0x2341'
p1136
sS'pid'
p1137
S'0x8038'
p1138
sS'variant'
p1139
S'robot_control'
p1140
sS'mcu'
p1141
S'atmega32u4'
p1142
ssS'name'
p1143
S'Arduino Robot Control'
p1144
saa(lp1145
S'robotMotor'
p1146
a(dp1147
S'bootloader'
p1148
(dp1149
S'extended_fuses'
p1150
S'0xcb'
p1151
sS'high_fuses'
p1152
S'0xd8'
p1153
sS'low_fuses'
p1154
S'0xff'
p1155
sS'lock_bits'
p1156
S'0x2F'
p1157
sS'file'
p1158
S'Caterina-Robot-Motor.hex'
p1159
sS'path'
p1160
S'caterina-Arduino_Robot'
p1161
sS'unlock_bits'
p1162
S'0x3F'
p1163
ssS'upload'
p1164
(dp1165
S'protocol'
p1166
S'avr109'
p1167
sS'maximum_size'
p1168
S'28672'
p1169
sS'speed'
p1170
S'57600'
p1171
sS'disable_flushing'
p1172
S'true'
p1173
ssS'build'
p1174
(dp1175
S'core'
p1176
S'robot'
p1177
sS'f_cpu'
p1178
S'16000000L'
p1179
sS'vid'
p1180
S'0x2341'
p1181
sS'pid'
p1182
S'0x8039'
p1183
sS'variant'
p1184
S'robot_motor'
p1185
sS'mcu'
p1186
S'atmega32u4'
p1187
ssS'name'
p1188
S'Arduino Robot Motor'
p1189
saatp1190
Rp1191
(dp1192
S'default'
p1193
S'uno'
p1194
sbtp1195
a(S'ldflags'
p1196
g2
(g3
g4
(lp1197
g6
aS'-Wl,-Os'
p1198
aS'-Wl,--gc-sections'
p1199
atp1200
Rp1201
tp1202
a.